; Function Attrs: mustprogress uwtable
define internal void @_ZN3gmx12_GLOBAL__N_123DefaultOutputRedirector18openTextOutputFileERKNSt10filesystem7__cxx114pathE(ptr dead_on_unwind noalias nocapture writable writeonly sret(%"class.std::shared_ptr") align 8 %0, ptr nocapture nonnull readnone align 8 %1, ptr noundef nonnull align 8 dereferenceable(40) %2) unnamed_addr #6 align 2 personality ptr @__gxx_personality_v0 {
  %4 = tail call noalias noundef nonnull dereferenceable(16) ptr @_Znwm(i64 noundef 16) #14
  invoke void @_ZN3gmx14TextOutputFileC1ERKNSt10filesystem7__cxx114pathE(ptr noundef nonnull align 8 dereferenceable(16) %4, ptr noundef nonnull align 8 dereferenceable(40) %2)
          to label %5 unwind label %24

5:                                                ; preds = %3
  store ptr %4, ptr %0, align 8
  %6 = getelementptr inbounds i8, ptr %0, i64 8
  store ptr null, ptr %6, align 8
  %7 = invoke noalias noundef nonnull dereferenceable(24) ptr @_Znwm(i64 noundef 24) #14
          to label %_ZNSt10shared_ptrIN3gmx16TextOutputStreamEEC2INS0_14TextOutputFileEvEEPT_.exit unwind label %8

8:                                                ; preds = %5
  %9 = landingpad { ptr, i32 }
          catch ptr null
  %10 = extractvalue { ptr, i32 } %9, 0
  %11 = tail call ptr @__cxa_begin_catch(ptr %10) #12
  %12 = load ptr, ptr %4, align 8
  %13 = getelementptr inbounds i8, ptr %12, i64 8
  %14 = load ptr, ptr %13, align 8
  tail call void %14(ptr noundef nonnull align 8 dereferenceable(16) %4) #12
  invoke void @__cxa_rethrow() #15
          to label %20 unwind label %15

15:                                               ; preds = %8
  %16 = landingpad { ptr, i32 }
          cleanup
  invoke void @__cxa_end_catch()
          to label %common.resume unwind label %17

common.resume:                                    ; preds = %15, %24
  %common.resume.op = phi { ptr, i32 } [ %25, %24 ], [ %16, %15 ]
  resume { ptr, i32 } %common.resume.op

17:                                               ; preds = %15
  %18 = landingpad { ptr, i32 }
          catch ptr null
  %19 = extractvalue { ptr, i32 } %18, 0
  tail call void @__clang_call_terminate(ptr %19) #11
  unreachable

20:                                               ; preds = %8
  unreachable

_ZNSt10shared_ptrIN3gmx16TextOutputStreamEEC2INS0_14TextOutputFileEvEEPT_.exit: ; preds = %5
  %21 = getelementptr inbounds i8, ptr %7, i64 8
  store i32 1, ptr %21, align 8
  %22 = getelementptr inbounds i8, ptr %7, i64 12
  store i32 1, ptr %22, align 4
  store ptr getelementptr inbounds inrange(-16, 40) ({ [7 x ptr] }, ptr @_ZTVSt15_Sp_counted_ptrIPN3gmx14TextOutputFileELN9__gnu_cxx12_Lock_policyE2EE, i64 0, i32 0, i64 2), ptr %7, align 8
  %23 = getelementptr inbounds i8, ptr %7, i64 16
  store ptr %4, ptr %23, align 8
  store ptr %7, ptr %6, align 8
  ret void

24:                                               ; preds = %3
  %25 = landingpad { ptr, i32 }
          cleanup
  tail call void @_ZdlPv(ptr noundef nonnull %4) #13
  br label %common.resume
}